; Function Attrs: nounwind uwtable
define ptr @l_Lean_Lsp_InitializeParams_editDelay___boxed(ptr noundef %0) local_unnamed_addr #0 {
  %2 = getelementptr inbounds nuw i8, ptr %0, i64 32
  %3 = load ptr, ptr %2, align 8, !tbaa !9
  %4 = ptrtoint ptr %3 to i64
  %5 = and i64 %4, 1
  %.not.i.i = icmp eq i64 %5, 0
  br i1 %.not.i.i, label %9, label %6

6:                                                ; preds = %1
  %7 = lshr i64 %4, 1
  %8 = trunc i64 %7 to i32
  br label %lean_obj_tag.exit.i

9:                                                ; preds = %1
  %10 = getelementptr i8, ptr %3, i64 4
  %.val.i.i = load i32, ptr %10, align 4
  %11 = lshr i32 %.val.i.i, 24
  br label %lean_obj_tag.exit.i

lean_obj_tag.exit.i:                              ; preds = %9, %6
  %.0.i.i = phi i32 [ %8, %6 ], [ %11, %9 ]
  %12 = icmp eq i32 %.0.i.i, 0
  br i1 %12, label %l_Lean_Lsp_InitializeParams_editDelay.exit, label %13

13:                                               ; preds = %lean_obj_tag.exit.i
  %14 = getelementptr inbounds nuw i8, ptr %3, i64 8
  %15 = load ptr, ptr %14, align 8, !tbaa !9
  %16 = getelementptr inbounds nuw i8, ptr %15, i64 8
  %17 = load ptr, ptr %16, align 8, !tbaa !9
  %18 = ptrtoint ptr %17 to i64
  %19 = and i64 %18, 1
  %.not.i11.i = icmp eq i64 %19, 0
  br i1 %.not.i11.i, label %23, label %20

20:                                               ; preds = %13
  %21 = lshr i64 %18, 1
  %22 = trunc i64 %21 to i32
  br label %lean_obj_tag.exit14.i

23:                                               ; preds = %13
  %24 = getelementptr i8, ptr %17, i64 4
  %.val.i13.i = load i32, ptr %24, align 4
  %25 = lshr i32 %.val.i13.i, 24
  br label %lean_obj_tag.exit14.i

lean_obj_tag.exit14.i:                            ; preds = %23, %20
  %.0.i12.i = phi i32 [ %22, %20 ], [ %25, %23 ]
  %26 = icmp eq i32 %.0.i12.i, 0
  br i1 %26, label %l_Lean_Lsp_InitializeParams_editDelay.exit, label %27

27:                                               ; preds = %lean_obj_tag.exit14.i
  %28 = getelementptr inbounds nuw i8, ptr %17, i64 8
  %29 = load ptr, ptr %28, align 8, !tbaa !9
  %30 = ptrtoint ptr %29 to i64
  %31 = and i64 %30, 1
  %.not.i3 = icmp eq i64 %31, 0
  br i1 %.not.i3, label %32, label %l_Lean_Lsp_InitializeParams_editDelay.exit

32:                                               ; preds = %27
  %.val.i15.i = load i32, ptr %29, align 4, !tbaa !4
  %33 = icmp sgt i32 %.val.i15.i, 0
  br i1 %33, label %34, label %36, !prof !11

34:                                               ; preds = %32
  %35 = add nuw i32 %.val.i15.i, 1
  store i32 %35, ptr %29, align 4, !tbaa !4
  br label %l_Lean_Lsp_InitializeParams_editDelay.exit

36:                                               ; preds = %32
  %.not.i16.i = icmp eq i32 %.val.i15.i, 0
  br i1 %.not.i16.i, label %l_Lean_Lsp_InitializeParams_editDelay.exit, label %37

37:                                               ; preds = %36
  tail call void @lean_inc_ref_cold(ptr noundef nonnull %29) #6
  br label %l_Lean_Lsp_InitializeParams_editDelay.exit

l_Lean_Lsp_InitializeParams_editDelay.exit:       ; preds = %lean_obj_tag.exit.i, %lean_obj_tag.exit14.i, %27, %34, %36, %37
  %.0.i = phi ptr [ inttoptr (i64 401 to ptr), %lean_obj_tag.exit.i ], [ inttoptr (i64 401 to ptr), %lean_obj_tag.exit14.i ], [ %29, %37 ], [ %29, %36 ], [ %29, %34 ], [ %29, %27 ]
  %38 = ptrtoint ptr %0 to i64
  %39 = and i64 %38, 1
  %.not = icmp eq i64 %39, 0
  br i1 %.not, label %40, label %lean_dec.exit

40:                                               ; preds = %l_Lean_Lsp_InitializeParams_editDelay.exit
  %41 = load i32, ptr %0, align 4, !tbaa !4
  %42 = icmp sgt i32 %41, 1
  br i1 %42, label %43, label %45, !prof !11

43:                                               ; preds = %40
  %44 = add nsw i32 %41, -1
  store i32 %44, ptr %0, align 4, !tbaa !4
  br label %lean_dec.exit

45:                                               ; preds = %40
  %.not.i = icmp eq i32 %41, 0
  br i1 %.not.i, label %lean_dec.exit, label %46

46:                                               ; preds = %45
  tail call void @lean_dec_ref_cold(ptr noundef nonnull %0) #6
  br label %lean_dec.exit

lean_dec.exit:                                    ; preds = %46, %45, %43, %l_Lean_Lsp_InitializeParams_editDelay.exit
  ret ptr %.0.i
}